target datalayout = "e-m:e-p270:32:32-p271:32:32-p272:64:64-i64:64-i128:128-f80:128-n8:16:32:64-S128"
target triple = "x86_64-pc-linux-gnu"

%struct.AVFilterContext = type { ptr, ptr, ptr, ptr, ptr, i32, ptr, ptr, i32, ptr, ptr, i32, i32, ptr, ptr, ptr, ptr, i32, ptr, i32, i32 }
%struct.IDETContext = type { ptr, float, float, float, float, i64, i32, [3 x i64], [4 x i64], [4 x i64], [3 x i64], [4 x i64], [4 x i64], [4 x i8], ptr, ptr, ptr, ptr, i32, i32, i32, ptr, i32 }

; Function Attrs: cold nounwind optsize uwtable
define internal i32 @init(ptr noundef %0) #2 {
  %2 = alloca ptr, align 8
  %3 = alloca ptr, align 8
  store ptr %0, ptr %2, align 8, !tbaa !19
  call void @llvm.lifetime.start.p0(i64 8, ptr %3) #10
  %4 = load ptr, ptr %2, align 8, !tbaa !19
  %5 = getelementptr inbounds nuw %struct.AVFilterContext, ptr %4, i32 0, i32 9
  %6 = load ptr, ptr %5, align 8, !tbaa !21
  store ptr %6, ptr %3, align 8, !tbaa !32
  %7 = load ptr, ptr %3, align 8, !tbaa !32
  %8 = getelementptr inbounds nuw %struct.IDETContext, ptr %7, i32 0, i32 22
  store i32 0, ptr %8, align 8, !tbaa !34
  %9 = load ptr, ptr %3, align 8, !tbaa !32
  %10 = getelementptr inbounds nuw %struct.IDETContext, ptr %9, i32 0, i32 6
  store i32 3, ptr %10, align 8, !tbaa !40
  %11 = load ptr, ptr %3, align 8, !tbaa !32
  %12 = getelementptr inbounds nuw %struct.IDETContext, ptr %11, i32 0, i32 13
  %13 = getelementptr inbounds [4 x i8], ptr %12, i64 0, i64 0
  call void @llvm.memset.p0.i64(ptr align 8 %13, i8 3, i64 4, i1 false)
  %14 = load ptr, ptr %3, align 8, !tbaa !32
  %15 = getelementptr inbounds nuw %struct.IDETContext, ptr %14, i32 0, i32 4
  %16 = load float, ptr %15, align 4, !tbaa !41
  %17 = fcmp nsz ogt float %16, 0.000000e+00
  br i1 %17, label %18, label %29

18:                                               ; preds = %1
  %19 = load ptr, ptr %3, align 8, !tbaa !32
  %20 = getelementptr inbounds nuw %struct.IDETContext, ptr %19, i32 0, i32 4
  %21 = load float, ptr %20, align 4, !tbaa !41
  %22 = fpext nsz float %21 to double
  %23 = fdiv nsz double -1.000000e+00, %22
  %24 = call nsz double @llvm.exp2.f64(double %23)
  %25 = fmul nsz double 0x4130000000000000, %24
  %26 = call i64 @llvm.lrint.i64.f64(double %25)
  %27 = load ptr, ptr %3, align 8, !tbaa !32
  %28 = getelementptr inbounds nuw %struct.IDETContext, ptr %27, i32 0, i32 5
  store i64 %26, ptr %28, align 8, !tbaa !42
  br label %32

29:                                               ; preds = %1
  %30 = load ptr, ptr %3, align 8, !tbaa !32
  %31 = getelementptr inbounds nuw %struct.IDETContext, ptr %30, i32 0, i32 5
  store i64 1048576, ptr %31, align 8, !tbaa !42
  br label %32

32:                                               ; preds = %29, %18
  %33 = load ptr, ptr %3, align 8, !tbaa !32
  %34 = getelementptr inbounds nuw %struct.IDETContext, ptr %33, i32 0, i32 17
  store ptr @ff_idet_filter_line_c, ptr %34, align 8, !tbaa !43
  call void @llvm.lifetime.end.p0(i64 8, ptr %3) #10
  ret i32 0
}