; Function Attrs: cold mustprogress nofree norecurse nosync nounwind optsize willreturn memory(readwrite, inaccessiblemem: none) uwtable
define internal noundef i32 @init(ptr noundef readonly captures(none) %0) #2 {
  %2 = getelementptr inbounds nuw i8, ptr %0, i64 72
  %3 = load ptr, ptr %2, align 8, !tbaa !12
  %4 = getelementptr inbounds nuw i8, ptr %3, i64 280
  store i32 0, ptr %4, align 8, !tbaa !26
  %5 = getelementptr inbounds nuw i8, ptr %3, i64 32
  store i32 3, ptr %5, align 8, !tbaa !32
  %6 = getelementptr inbounds nuw i8, ptr %3, i64 216
  store i32 50529027, ptr %6, align 8
  %7 = getelementptr inbounds nuw i8, ptr %3, i64 20
  %8 = load float, ptr %7, align 4, !tbaa !33
  %9 = fcmp nsz ogt float %8, 0.000000e+00
  br i1 %9, label %10, label %16

10:                                               ; preds = %1
  %11 = fpext nsz float %8 to double
  %12 = fdiv nsz double -1.000000e+00, %11
  %13 = tail call nsz double @llvm.exp2.f64(double %12)
  %14 = fmul nsz double %13, 0x4130000000000000
  %15 = tail call i64 @llvm.lrint.i64.f64(double %14)
  br label %16

16:                                               ; preds = %1, %10
  %.sink = phi i64 [ %15, %10 ], [ 1048576, %1 ]
  %17 = getelementptr inbounds nuw i8, ptr %3, i64 24
  store i64 %.sink, ptr %17, align 8, !tbaa !34
  %18 = getelementptr inbounds nuw i8, ptr %3, i64 248
  store ptr @ff_idet_filter_line_c, ptr %18, align 8, !tbaa !35
  ret i32 0
}